; Function Attrs: mustprogress uwtable
define void @_ZN5draco10DataBuffer17WriteDataToStreamERSo(ptr noundef nonnull readonly align 8 captures(none) dereferenceable(40) %0, ptr noundef nonnull align 8 dereferenceable(8) %1) local_unnamed_addr #1 align 2 {
  %3 = load ptr, ptr %0, align 8, !tbaa !19
  %4 = getelementptr inbounds nuw i8, ptr %0, i64 8
  %5 = load ptr, ptr %4, align 8, !tbaa !19
  %6 = icmp eq ptr %3, %5
  br i1 %6, label %12, label %7

7:                                                ; preds = %2
  %8 = ptrtoint ptr %5 to i64
  %9 = ptrtoint ptr %3 to i64
  %10 = sub i64 %8, %9
  %11 = tail call noundef nonnull align 8 dereferenceable(8) ptr @_ZNSo5writeEPKcl(ptr noundef nonnull align 8 dereferenceable(8) %1, ptr noundef %3, i64 noundef %10)
  br label %12

12:                                               ; preds = %2, %7
  ret void
}